; Function Attrs: mustprogress nofree norecurse nosync nounwind willreturn memory(argmem: read) uwtable
define hidden i64 @_ZNK7nanogui10ImagePanel9grid_sizeEv(ptr nocapture noundef nonnull readonly align 8 dereferenceable(216) %0) local_unnamed_addr #2 align 2 {
  %2 = getelementptr inbounds i8, ptr %0, i64 48
  %3 = load i32, ptr %2, align 8
  %4 = getelementptr inbounds i8, ptr %0, i64 208
  %5 = load i32, ptr %4, align 8
  %6 = getelementptr inbounds i8, ptr %0, i64 200
  %7 = load i32, ptr %6, align 8
  %8 = shl i32 %5, 1
  %9 = add i32 %7, %8
  %10 = sub i32 %3, %9
  %11 = sitofp i32 %10 to float
  %12 = getelementptr inbounds i8, ptr %0, i64 204
  %13 = load i32, ptr %12, align 4
  %14 = add nsw i32 %13, %7
  %15 = sitofp i32 %14 to float
  %16 = fdiv float %11, %15
  %17 = fptosi float %16 to i32
  %.sroa.speculated = tail call i32 @llvm.smax.i32(i32 %17, i32 0)
  %18 = add nuw nsw i32 %.sroa.speculated, 1
  %19 = getelementptr inbounds i8, ptr %0, i64 144
  %20 = getelementptr inbounds i8, ptr %0, i64 152
  %21 = load ptr, ptr %20, align 8
  %22 = load ptr, ptr %19, align 8
  %23 = ptrtoint ptr %21 to i64
  %24 = ptrtoint ptr %22 to i64
  %25 = sub i64 %23, %24
  %26 = sdiv exact i64 %25, 40
  %27 = trunc i64 %26 to i32
  %28 = add i32 %.sroa.speculated, %27
  %29 = sdiv i32 %28, %18
  %.sroa.2.0.insert.ext = zext i32 %29 to i64
  %.sroa.2.0.insert.shift = shl nuw i64 %.sroa.2.0.insert.ext, 32
  %.sroa.0.0.insert.ext = zext nneg i32 %18 to i64
  %.sroa.0.0.insert.insert = or disjoint i64 %.sroa.2.0.insert.shift, %.sroa.0.0.insert.ext
  ret i64 %.sroa.0.0.insert.insert
}